	.file	"codeforcesAPI.c"
	.section .rdata,"dr"
LC0:
	.ascii "%d\12\0"
	.text
	.globl	_f
	.def	_f;	.scl	2;	.type	32;	.endef
_f:
LFB14:
	.cfi_startproc
	pushl	%ebp
	.cfi_def_cfa_offset 8
	.cfi_offset 5, -8
	movl	%esp, %ebp
	.cfi_def_cfa_register 5
	subl	$24, %esp
	movl	12(%ebp), %eax
	leal	0(,%eax,4), %edx
	movl	8(%ebp), %eax
	addl	%edx, %eax
	movl	(%eax), %eax
	movl	%eax, 4(%esp)
	movl	$LC0, (%esp)
	call	_printf
	nop
	leave
	.cfi_restore 5
	.cfi_def_cfa 4, 4
	ret
	.cfi_endproc
LFE14:
	.section .rdata,"dr"
LC1:
	.ascii "?\0"
	.text
	.globl	_print
	.def	_print;	.scl	2;	.type	32;	.endef
_print:
LFB15:
	.cfi_startproc
	pushl	%ebp
	.cfi_def_cfa_offset 8
	.cfi_offset 5, -8
	movl	%esp, %ebp
	.cfi_def_cfa_register 5
	subl	$40, %esp
	movl	$0, -12(%ebp)
	jmp	L3
L4:
	movl	8(%ebp), %eax
	movzbl	(%eax), %eax
	movsbl	%al, %eax
	movl	%eax, (%esp)
	call	_putchar
	addl	$1, 8(%ebp)
	addl	$1, -12(%ebp)
L3:
	movl	8(%ebp), %eax
	movzbl	(%eax), %eax
	testb	%al, %al
	jne	L4
	movl	$LC1, (%esp)
	call	_puts
	movl	-12(%ebp), %eax
	leave
	.cfi_restore 5
	.cfi_def_cfa 4, 4
	ret
	.cfi_endproc
LFE15:
	.section .rdata,"dr"
LC2:
	.ascii "%p\12\0"
	.text
	.globl	_changePTR
	.def	_changePTR;	.scl	2;	.type	32;	.endef
_changePTR:
LFB16:
	.cfi_startproc
	pushl	%ebp
	.cfi_def_cfa_offset 8
	.cfi_offset 5, -8
	movl	%esp, %ebp
	.cfi_def_cfa_register 5
	subl	$24, %esp
	movl	8(%ebp), %eax
	movl	%eax, 4(%esp)
	movl	$LC2, (%esp)
	call	_printf
	movl	8(%ebp), %eax
	movl	(%eax), %eax
	movl	%eax, 4(%esp)
	movl	$LC0, (%esp)
	call	_printf
	movl	8(%ebp), %eax
	movl	$9, (%eax)
	nop
	leave
	.cfi_restore 5
	.cfi_def_cfa 4, 4
	ret
	.cfi_endproc
LFE16:
	.section .rdata,"dr"
LC3:
	.ascii "%d\0"
	.text
	.globl	_fo
	.def	_fo;	.scl	2;	.type	32;	.endef
_fo:
LFB17:
	.cfi_startproc
	pushl	%ebp
	.cfi_def_cfa_offset 8
	.cfi_offset 5, -8
	movl	%esp, %ebp
	.cfi_def_cfa_register 5
	subl	$24, %esp
	movl	8(%ebp), %eax
	movl	(%eax), %eax
	addl	$4, %eax
	movl	(%eax), %eax
	movl	%eax, 4(%esp)
	movl	$LC3, (%esp)
	call	_printf
	nop
	leave
	.cfi_restore 5
	.cfi_def_cfa 4, 4
	ret
	.cfi_endproc
LFE17:
	.def	___main;	.scl	2;	.type	32;	.endef
	.globl	_main
	.def	_main;	.scl	2;	.type	32;	.endef
_main:
LFB18:
	.cfi_startproc
	pushl	%ebp
	.cfi_def_cfa_offset 8
	.cfi_offset 5, -8
	movl	%esp, %ebp
	.cfi_def_cfa_register 5
	andl	$-16, %esp
	call	___main
	movl	$0, %eax
	leave
	.cfi_restore 5
	.cfi_def_cfa 4, 4
	ret
	.cfi_endproc
LFE18:
	.ident	"GCC: (MinGW.org GCC-6.3.0-1) 6.3.0"
	.def	_printf;	.scl	2;	.type	32;	.endef
	.def	_putchar;	.scl	2;	.type	32;	.endef
	.def	_puts;	.scl	2;	.type	32;	.endef
