	.file	"b.c"
	.section .rdata,"dr"
LC0:
	.ascii "foo has been called! n= %d\12\0"
	.text
	.globl	_foo
	.def	_foo;	.scl	2;	.type	32;	.endef
_foo:
LFB10:
	.cfi_startproc
	pushl	%ebp
	.cfi_def_cfa_offset 8
	.cfi_offset 5, -8
	movl	%esp, %ebp
	.cfi_def_cfa_register 5
	subl	$24, %esp
	movl	8(%ebp), %eax
	movl	(%eax), %eax
	movl	%eax, 4(%esp)
	movl	$LC0, (%esp)
	call	_printf
	nop
	leave
	.cfi_restore 5
	.cfi_def_cfa 4, 4
	ret
	.cfi_endproc
LFE10:
	.section .rdata,"dr"
LC1:
	.ascii "bam! %d\0"
	.text
	.globl	_bam
	.def	_bam;	.scl	2;	.type	32;	.endef
_bam:
LFB11:
	.cfi_startproc
	pushl	%ebp
	.cfi_def_cfa_offset 8
	.cfi_offset 5, -8
	movl	%esp, %ebp
	.cfi_def_cfa_register 5
	subl	$24, %esp
	movl	12(%ebp), %eax
	movl	%eax, (%esp)
	movl	8(%ebp), %eax
	call	*%eax
	movl	12(%ebp), %eax
	movl	(%eax), %eax
	movl	%eax, 4(%esp)
	movl	$LC1, (%esp)
	call	_printf
	nop
	leave
	.cfi_restore 5
	.cfi_def_cfa 4, 4
	ret
	.cfi_endproc
LFE11:
	.def	___main;	.scl	2;	.type	32;	.endef
	.section .rdata,"dr"
LC2:
	.ascii "%d\0"
	.text
	.globl	_main
	.def	_main;	.scl	2;	.type	32;	.endef
_main:
LFB12:
	.cfi_startproc
	pushl	%ebp
	.cfi_def_cfa_offset 8
	.cfi_offset 5, -8
	movl	%esp, %ebp
	.cfi_def_cfa_register 5
	andl	$-16, %esp
	subl	$32, %esp
	call	___main
	movl	$5, 28(%esp)
	leal	28(%esp), %eax
	movl	%eax, 4(%esp)
	movl	$LC2, (%esp)
	call	_scanf
	leal	28(%esp), %eax
	movl	%eax, 4(%esp)
	movl	$_foo, (%esp)
	call	_bam
	nop
	leave
	.cfi_restore 5
	.cfi_def_cfa 4, 4
	ret
	.cfi_endproc
LFE12:
	.ident	"GCC: (MinGW.org GCC-6.3.0-1) 6.3.0"
	.def	_printf;	.scl	2;	.type	32;	.endef
	.def	_scanf;	.scl	2;	.type	32;	.endef
